(lp0
VMMM
p1
aVABT
p2
aVABBV
p3
aVACN
p4
aVATVI
p5
aVAYI
p6
aVADBE
p7
aVAMD
p8
aVAAP
p9
aVAES
p10
aVAET
p11
aVAMG
p12
aVAFL
p13
aVA
p14
aVAPD
p15
aVAKAM
p16
aVALK
p17
aVALB
p18
aVARE
p19
aVALXN
p20
aVALGN
p21
aVALLE
p22
aVAGN
p23
aVADS
p24
aVLNT
p25
aVALL
p26
aVGOOGL
p27
aVGOOG
p28
aVMO
p29
aVAMZN
p30
aVAEE
p31
aVAAL
p32
aVAEP
p33
aVAXP
p34
aVAIG
p35
aVAMT
p36
aVAWK
p37
aVAMP
p38
aVABC
p39
aVAME
p40
aVAMGN
p41
aVAPH
p42
aVAPC
p43
aVADI
p44
aVANDV
p45
aVANSS
p46
aVANTM
p47
aVAON
p48
aVAOS
p49
aVAPA
p50
aVAIV
p51
aVAAPL
p52
aVAMAT
p53
aVAPTV
p54
aVADM
p55
aVARNC
p56
aVAJG
p57
aVAIZ
p58
aVT
p59
aVADSK
p60
aVADP
p61
aVAZO
p62
aVAVB
p63
aVAVY
p64
aVBHGE
p65
aVBLL
p66
aVBAC
p67
aVBK
p68
aVBAX
p69
aVBBT
p70
aVBDX
p71
aVBRK.B
p72
aVBBY
p73
aVBIIB
p74
aVBLK
p75
aVHRB
p76
aVBA
p77
aVBKNG
p78
aVBWA
p79
aVBXP
p80
aVBSX
p81
aVBHF
p82
aVBMY
p83
aVAVGO
p84
aVBF.B
p85
aVCHRW
p86
aVCA
p87
aVCOG
p88
aVCDNS
p89
aVCPB
p90
aVCOF
p91
aVCAH
p92
aVKMX
p93
aVCCL
p94
aVCAT
p95
aVCBOE
p96
aVCBRE
p97
aVCBS
p98
aVCELG
p99
aVCNC
p100
aVCNP
p101
aVCTL
p102
aVCERN
p103
aVCF
p104
aVSCHW
p105
aVCHTR
p106
aVCVX
p107
aVCMG
p108
aVCB
p109
aVCHD
p110
aVCI
p111
aVXEC
p112
aVCINF
p113
aVCTAS
p114
aVCSCO
p115
aVC
p116
aVCFG
p117
aVCTXS
p118
aVCLX
p119
aVCME
p120
aVCMS
p121
aVKO
p122
aVCTSH
p123
aVCL
p124
aVCMCSA
p125
aVCMA
p126
aVCAG
p127
aVCXO
p128
aVCOP
p129
aVED
p130
aVSTZ
p131
aVCOO
p132
aVGLW
p133
aVCOST
p134
aVCOTY
p135
aVCCI
p136
aVCSX
p137
aVCMI
p138
aVCVS
p139
aVDHI
p140
aVDHR
p141
aVDRI
p142
aVDVA
p143
aVDE
p144
aVDAL
p145
aVXRAY
p146
aVDVN
p147
aVDLR
p148
aVDFS
p149
aVDISCA
p150
aVDISCK
p151
aVDISH
p152
aVDG
p153
aVDLTR
p154
aVD
p155
aVDOV
p156
aVDWDP
p157
aVDPS
p158
aVDTE
p159
aVDRE
p160
aVDUK
p161
aVDXC
p162
aVETFC
p163
aVEMN
p164
aVETN
p165
aVEBAY
p166
aVECL
p167
aVEIX
p168
aVEW
p169
aVEA
p170
aVEMR
p171
aVETR
p172
aVEVHC
p173
aVEOG
p174
aVEQT
p175
aVEFX
p176
aVEQIX
p177
aVEQR
p178
aVESS
p179
aVEL
p180
aVES
p181
aVRE
p182
aVEXC
p183
aVEXPE
p184
aVEXPD
p185
aVESRX
p186
aVEXR
p187
aVXOM
p188
aVFFIV
p189
aVFB
p190
aVFAST
p191
aVFRT
p192
aVFDX
p193
aVFIS
p194
aVFITB
p195
aVFE
p196
aVFISV
p197
aVFLIR
p198
aVFLS
p199
aVFLR
p200
aVFMC
p201
aVFL
p202
aVF
p203
aVFTV
p204
aVFBHS
p205
aVBEN
p206
aVFCX
p207
aVGPS
p208
aVGRMN
p209
aVIT
p210
aVGD
p211
aVGE
p212
aVGGP
p213
aVGIS
p214
aVGM
p215
aVGPC
p216
aVGILD
p217
aVGPN
p218
aVGS
p219
aVGT
p220
aVGWW
p221
aVHAL
p222
aVHBI
p223
aVHOG
p224
aVHRS
p225
aVHIG
p226
aVHAS
p227
aVHCA
p228
aVHCP
p229
aVHP
p230
aVHSIC
p231
aVHSY
p232
aVHES
p233
aVHPE
p234
aVHLT
p235
aVHOLX
p236
aVHD
p237
aVHON
p238
aVHRL
p239
aVHST
p240
aVHPQ
p241
aVHUM
p242
aVHBAN
p243
aVHII
p244
aVIDXX
p245
aVINFO
p246
aVITW
p247
aVILMN
p248
aVIR
p249
aVINTC
p250
aVICE
p251
aVIBM
p252
aVINCY
p253
aVIP
p254
aVIPG
p255
aVIFF
p256
aVINTU
p257
aVISRG
p258
aVIVZ
p259
aVIPGP
p260
aVIQV
p261
aVIRM
p262
aVJEC
p263
aVJBHT
p264
aVJEF
p265
aVSJM
p266
aVJNJ
p267
aVJCI
p268
aVJPM
p269
aVJNPR
p270
aVKSU
p271
aVK
p272
aVKEY
p273
aVKMB
p274
aVKIM
p275
aVKMI
p276
aVKLAC
p277
aVKSS
p278
aVKHC
p279
aVKR
p280
aVLB
p281
aVLLL
p282
aVLH
p283
aVLRCX
p284
aVLEG
p285
aVLEN
p286
aVLLY
p287
aVLNC
p288
aVLKQ
p289
aVLMT
p290
aVL
p291
aVLOW
p292
aVLYB
p293
aVMTB
p294
aVMAC
p295
aVM
p296
aVMRO
p297
aVMPC
p298
aVMAR
p299
aVMMC
p300
aVMLM
p301
aVMAS
p302
aVMA
p303
aVMAT
p304
aVMKC
p305
aVMCD
p306
aVMCK
p307
aVMDT
p308
aVMRK
p309
aVMET
p310
aVMTD
p311
aVMGM
p312
aVKORS
p313
aVMCHP
p314
aVMU
p315
aVMSFT
p316
aVMAA
p317
aVMHK
p318
aVTAP
p319
aVMDLZ
p320
aVMON
p321
aVMNST
p322
aVMCO
p323
aVMS
p324
aVMOS
p325
aVMSI
p326
aVMSCI
p327
aVMYL
p328
aVNDAQ
p329
aVNOV
p330
aVNAVI
p331
aVNKTR
p332
aVNTAP
p333
aVNFLX
p334
aVNWL
p335
aVNFX
p336
aVNEM
p337
aVNWSA
p338
aVNWS
p339
aVNEE
p340
aVNLSN
p341
aVNKE
p342
aVNI
p343
aVNBL
p344
aVJWN
p345
aVNSC
p346
aVNTRS
p347
aVNOC
p348
aVNCLH
p349
aVNRG
p350
aVNUE
p351
aVNVDA
p352
aVORLY
p353
aVOXY
p354
aVOMC
p355
aVOKE
p356
aVORCL
p357
aVPCAR
p358
aVPKG
p359
aVPH
p360
aVPAYX
p361
aVPYPL
p362
aVPNR
p363
aVPBCT
p364
aVPEP
p365
aVPKI
p366
aVPRGO
p367
aVPFE
p368
aVPCG
p369
aVPM
p370
aVPSX
p371
aVPNW
p372
aVPXD
p373
aVPNC
p374
aVRL
p375
aVPPG
p376
aVPPL
p377
aVPX
p378
aVPFG
p379
aVPG
p380
aVPGR
p381
aVPLD
p382
aVPRU
p383
aVPEG
p384
aVPSA
p385
aVPHM
p386
aVPVH
p387
aVQRVO
p388
aVPWR
p389
aVQCOM
p390
aVDGX
p391
aVRRC
p392
aVRJF
p393
aVRTN
p394
aVO
p395
aVRHT
p396
aVREG
p397
aVREGN
p398
aVRF
p399
aVRSG
p400
aVRMD
p401
aVRHI
p402
aVROK
p403
aVCOL
p404
aVROP
p405
aVROST
p406
aVRCL
p407
aVCRM
p408
aVSBAC
p409
aVSCG
p410
aVSLB
p411
aVSTX
p412
aVSEE
p413
aVSRE
p414
aVSHW
p415
aVSPG
p416
aVSWKS
p417
aVSLG
p418
aVSNA
p419
aVSO
p420
aVLUV
p421
aVSPGI
p422
aVSWK
p423
aVSBUX
p424
aVSTT
p425
aVSRCL
p426
aVSYK
p427
aVSTI
p428
aVSIVB
p429
aVSYMC
p430
aVSYF
p431
aVSNPS
p432
aVSYY
p433
aVTROW
p434
aVTTWO
p435
aVTPR
p436
aVTGT
p437
aVTEL
p438
aVFTI
p439
aVTXN
p440
aVTXT
p441
aVTMO
p442
aVTIF
p443
aVTWX
p444
aVTJX
p445
aVTMK
p446
aVTSS
p447
aVTSCO
p448
aVTDG
p449
aVTRV
p450
aVTRIP
p451
aVFOXA
p452
aVFOX
p453
aVTSN
p454
aVUDR
p455
aVULTA
p456
aVUSB
p457
aVUAA
p458
aVUA
p459
aVUNP
p460
aVUAL
p461
aVUNH
p462
aVUPS
p463
aVURI
p464
aVUTX
p465
aVUHS
p466
aVUNM
p467
aVVFC
p468
aVVLO
p469
aVVAR
p470
aVVTR
p471
aVVRSN
p472
aVVRSK
p473
aVVZ
p474
aVVRTX
p475
aVVIAB
p476
aVV
p477
aVVNO
p478
aVVMC
p479
aVWMT
p480
aVWBA
p481
aVDIS
p482
aVWM
p483
aVWAT
p484
aVWEC
p485
aVWFC
p486
aVWELL
p487
aVWDC
p488
aVWU
p489
aVWRK
p490
aVWY
p491
aVWHR
p492
aVWMB
p493
aVWLTW
p494
aVWYN
p495
aVWYNN
p496
aVXEL
p497
aVXRX
p498
aVXLNX
p499
aVXL
p500
aVXYL
p501
aVYUM
p502
aVZBH
p503
aVZION
p504
aVZTS
p505
a.