(lp0
VMMM
p1
aVABT
p2
aVABBV
p3
aVABMD
p4
aVACN
p5
aVATVI
p6
aVADBE
p7
aVAMD
p8
aVAAP
p9
aVAES
p10
aVAET
p11
aVAMG
p12
aVAFL
p13
aVA
p14
aVAPD
p15
aVAKAM
p16
aVALK
p17
aVALB
p18
aVARE
p19
aVALXN
p20
aVALGN
p21
aVALLE
p22
aVAGN
p23
aVADS
p24
aVLNT
p25
aVALL
p26
aVGOOGL
p27
aVGOOG
p28
aVMO
p29
aVAMZN
p30
aVAEE
p31
aVAAL
p32
aVAEP
p33
aVAXP
p34
aVAIG
p35
aVAMT
p36
aVAWK
p37
aVAMP
p38
aVABC
p39
aVAME
p40
aVAMGN
p41
aVAPH
p42
aVAPC
p43
aVADI
p44
aVANDV
p45
aVANSS
p46
aVANTM
p47
aVAON
p48
aVAOS
p49
aVAPA
p50
aVAIV
p51
aVAAPL
p52
aVAMAT
p53
aVAPTV
p54
aVADM
p55
aVARNC
p56
aVAJG
p57
aVAIZ
p58
aVT
p59
aVADSK
p60
aVADP
p61
aVAZO
p62
aVAVB
p63
aVAVY
p64
aVBHGE
p65
aVBLL
p66
aVBAC
p67
aVBK
p68
aVBAX
p69
aVBBT
p70
aVBDX
p71
aVBRK.B
p72
aVBBY
p73
aVBIIB
p74
aVBLK
p75
aVHRB
p76
aVBA
p77
aVBKNG
p78
aVBWA
p79
aVBXP
p80
aVBSX
p81
aVBHF
p82
aVBMY
p83
aVAVGO
p84
aVBR
p85
aVBF.B
p86
aVCHRW
p87
aVCA
p88
aVCOG
p89
aVCDNS
p90
aVCPB
p91
aVCOF
p92
aVCAH
p93
aVKMX
p94
aVCCL
p95
aVCAT
p96
aVCBOE
p97
aVCBRE
p98
aVCBS
p99
aVCELG
p100
aVCNC
p101
aVCNP
p102
aVCTL
p103
aVCERN
p104
aVCF
p105
aVSCHW
p106
aVCHTR
p107
aVCVX
p108
aVCMG
p109
aVCB
p110
aVCHD
p111
aVCI
p112
aVXEC
p113
aVCINF
p114
aVCTAS
p115
aVCSCO
p116
aVC
p117
aVCFG
p118
aVCTXS
p119
aVCLX
p120
aVCME
p121
aVCMS
p122
aVKO
p123
aVCTSH
p124
aVCL
p125
aVCMCSA
p126
aVCMA
p127
aVCAG
p128
aVCXO
p129
aVCOP
p130
aVED
p131
aVSTZ
p132
aVCOO
p133
aVGLW
p134
aVCOST
p135
aVCOTY
p136
aVCCI
p137
aVCSX
p138
aVCMI
p139
aVCVS
p140
aVDHI
p141
aVDHR
p142
aVDRI
p143
aVDVA
p144
aVDE
p145
aVDAL
p146
aVXRAY
p147
aVDVN
p148
aVDLR
p149
aVDFS
p150
aVDISCA
p151
aVDISCK
p152
aVDISH
p153
aVDG
p154
aVDLTR
p155
aVD
p156
aVDOV
p157
aVDWDP
p158
aVDPS
p159
aVDTE
p160
aVDRE
p161
aVDUK
p162
aVDXC
p163
aVETFC
p164
aVEMN
p165
aVETN
p166
aVEBAY
p167
aVECL
p168
aVEIX
p169
aVEW
p170
aVEA
p171
aVEMR
p172
aVETR
p173
aVEVHC
p174
aVEOG
p175
aVEQT
p176
aVEFX
p177
aVEQIX
p178
aVEQR
p179
aVESS
p180
aVEL
p181
aVEVRG
p182
aVES
p183
aVRE
p184
aVEXC
p185
aVEXPE
p186
aVEXPD
p187
aVESRX
p188
aVEXR
p189
aVXOM
p190
aVFFIV
p191
aVFB
p192
aVFAST
p193
aVFRT
p194
aVFDX
p195
aVFIS
p196
aVFITB
p197
aVFE
p198
aVFISV
p199
aVFLT
p200
aVFLIR
p201
aVFLS
p202
aVFLR
p203
aVFMC
p204
aVFL
p205
aVF
p206
aVFTV
p207
aVFBHS
p208
aVBEN
p209
aVFCX
p210
aVGPS
p211
aVGRMN
p212
aVIT
p213
aVGD
p214
aVGE
p215
aVGGP
p216
aVGIS
p217
aVGM
p218
aVGPC
p219
aVGILD
p220
aVGPN
p221
aVGS
p222
aVGT
p223
aVGWW
p224
aVHAL
p225
aVHBI
p226
aVHOG
p227
aVHRS
p228
aVHIG
p229
aVHAS
p230
aVHCA
p231
aVHCP
p232
aVHP
p233
aVHSIC
p234
aVHSY
p235
aVHES
p236
aVHPE
p237
aVHLT
p238
aVHFC
p239
aVHOLX
p240
aVHD
p241
aVHON
p242
aVHRL
p243
aVHST
p244
aVHPQ
p245
aVHUM
p246
aVHBAN
p247
aVHII
p248
aVIDXX
p249
aVINFO
p250
aVITW
p251
aVILMN
p252
aVIR
p253
aVINTC
p254
aVICE
p255
aVIBM
p256
aVINCY
p257
aVIP
p258
aVIPG
p259
aVIFF
p260
aVINTU
p261
aVISRG
p262
aVIVZ
p263
aVIPGP
p264
aVIQV
p265
aVIRM
p266
aVJEC
p267
aVJBHT
p268
aVJEF
p269
aVSJM
p270
aVJNJ
p271
aVJCI
p272
aVJPM
p273
aVJNPR
p274
aVKSU
p275
aVK
p276
aVKEY
p277
aVKMB
p278
aVKIM
p279
aVKMI
p280
aVKLAC
p281
aVKSS
p282
aVKHC
p283
aVKR
p284
aVLB
p285
aVLLL
p286
aVLH
p287
aVLRCX
p288
aVLEG
p289
aVLEN
p290
aVLLY
p291
aVLNC
p292
aVLKQ
p293
aVLMT
p294
aVL
p295
aVLOW
p296
aVLYB
p297
aVMTB
p298
aVMAC
p299
aVM
p300
aVMRO
p301
aVMPC
p302
aVMAR
p303
aVMMC
p304
aVMLM
p305
aVMAS
p306
aVMA
p307
aVMAT
p308
aVMKC
p309
aVMCD
p310
aVMCK
p311
aVMDT
p312
aVMRK
p313
aVMET
p314
aVMTD
p315
aVMGM
p316
aVKORS
p317
aVMCHP
p318
aVMU
p319
aVMSFT
p320
aVMAA
p321
aVMHK
p322
aVTAP
p323
aVMDLZ
p324
aVMNST
p325
aVMCO
p326
aVMS
p327
aVMOS
p328
aVMSI
p329
aVMSCI
p330
aVMYL
p331
aVNDAQ
p332
aVNOV
p333
aVNKTR
p334
aVNTAP
p335
aVNFLX
p336
aVNWL
p337
aVNFX
p338
aVNEM
p339
aVNWSA
p340
aVNWS
p341
aVNEE
p342
aVNLSN
p343
aVNKE
p344
aVNI
p345
aVNBL
p346
aVJWN
p347
aVNSC
p348
aVNTRS
p349
aVNOC
p350
aVNCLH
p351
aVNRG
p352
aVNUE
p353
aVNVDA
p354
aVORLY
p355
aVOXY
p356
aVOMC
p357
aVOKE
p358
aVORCL
p359
aVPCAR
p360
aVPKG
p361
aVPH
p362
aVPAYX
p363
aVPYPL
p364
aVPNR
p365
aVPBCT
p366
aVPEP
p367
aVPKI
p368
aVPRGO
p369
aVPFE
p370
aVPCG
p371
aVPM
p372
aVPSX
p373
aVPNW
p374
aVPXD
p375
aVPNC
p376
aVRL
p377
aVPPG
p378
aVPPL
p379
aVPX
p380
aVPFG
p381
aVPG
p382
aVPGR
p383
aVPLD
p384
aVPRU
p385
aVPEG
p386
aVPSA
p387
aVPHM
p388
aVPVH
p389
aVQRVO
p390
aVPWR
p391
aVQCOM
p392
aVDGX
p393
aVRJF
p394
aVRTN
p395
aVO
p396
aVRHT
p397
aVREG
p398
aVREGN
p399
aVRF
p400
aVRSG
p401
aVRMD
p402
aVRHI
p403
aVROK
p404
aVCOL
p405
aVROP
p406
aVROST
p407
aVRCL
p408
aVCRM
p409
aVSBAC
p410
aVSCG
p411
aVSLB
p412
aVSTX
p413
aVSEE
p414
aVSRE
p415
aVSHW
p416
aVSPG
p417
aVSWKS
p418
aVSLG
p419
aVSNA
p420
aVSO
p421
aVLUV
p422
aVSPGI
p423
aVSWK
p424
aVSBUX
p425
aVSTT
p426
aVSRCL
p427
aVSYK
p428
aVSTI
p429
aVSIVB
p430
aVSYMC
p431
aVSYF
p432
aVSNPS
p433
aVSYY
p434
aVTROW
p435
aVTTWO
p436
aVTPR
p437
aVTGT
p438
aVTEL
p439
aVFTI
p440
aVTXN
p441
aVTXT
p442
aVTMO
p443
aVTIF
p444
aVTWTR
p445
aVTJX
p446
aVTMK
p447
aVTSS
p448
aVTSCO
p449
aVTDG
p450
aVTRV
p451
aVTRIP
p452
aVFOXA
p453
aVFOX
p454
aVTSN
p455
aVUDR
p456
aVULTA
p457
aVUSB
p458
aVUAA
p459
aVUA
p460
aVUNP
p461
aVUAL
p462
aVUNH
p463
aVUPS
p464
aVURI
p465
aVUTX
p466
aVUHS
p467
aVUNM
p468
aVVFC
p469
aVVLO
p470
aVVAR
p471
aVVTR
p472
aVVRSN
p473
aVVRSK
p474
aVVZ
p475
aVVRTX
p476
aVVIAB
p477
aVV
p478
aVVNO
p479
aVVMC
p480
aVWMT
p481
aVWBA
p482
aVDIS
p483
aVWM
p484
aVWAT
p485
aVWEC
p486
aVWFC
p487
aVWELL
p488
aVWDC
p489
aVWU
p490
aVWRK
p491
aVWY
p492
aVWHR
p493
aVWMB
p494
aVWLTW
p495
aVWYNN
p496
aVXEL
p497
aVXRX
p498
aVXLNX
p499
aVXL
p500
aVXYL
p501
aVYUM
p502
aVZBH
p503
aVZION
p504
aVZTS
p505
a.